target datalayout = "e-m:e-p270:32:32-p271:32:32-p272:64:64-i64:64-i128:128-f80:128-n8:16:32:64-S128"
target triple = "x86_64-pc-linux-gnu"

%struct.luaL_Buffer = type { ptr, i32, ptr, [8192 x i8] }

; Function Attrs: nounwind uwtable
define internal void @adjuststack(ptr noundef %0) #0 {
  %2 = alloca ptr, align 8
  %3 = alloca ptr, align 8
  %4 = alloca i32, align 4
  %5 = alloca i64, align 8
  %6 = alloca i64, align 8
  %7 = alloca i32, align 4
  store ptr %0, ptr %2, align 8, !tbaa !57
  %8 = load ptr, ptr %2, align 8, !tbaa !57
  %9 = getelementptr inbounds nuw %struct.luaL_Buffer, ptr %8, i32 0, i32 1
  %10 = load i32, ptr %9, align 8, !tbaa !62
  %11 = icmp sgt i32 %10, 1
  br i1 %11, label %12, label %62

12:                                               ; preds = %1
  call void @llvm.lifetime.start.p0(i64 8, ptr %3) #9
  %13 = load ptr, ptr %2, align 8, !tbaa !57
  %14 = getelementptr inbounds nuw %struct.luaL_Buffer, ptr %13, i32 0, i32 2
  %15 = load ptr, ptr %14, align 8, !tbaa !59
  store ptr %15, ptr %3, align 8, !tbaa !4
  call void @llvm.lifetime.start.p0(i64 4, ptr %4) #9
  store i32 1, ptr %4, align 4, !tbaa !9
  call void @llvm.lifetime.start.p0(i64 8, ptr %5) #9
  %16 = load ptr, ptr %3, align 8, !tbaa !4
  %17 = call i64 @lua_objlen(ptr noundef %16, i32 noundef -1)
  store i64 %17, ptr %5, align 8, !tbaa !55
  br label %18

18:                                               ; preds = %45, %12
  call void @llvm.lifetime.start.p0(i64 8, ptr %6) #9
  %19 = load ptr, ptr %3, align 8, !tbaa !4
  %20 = load i32, ptr %4, align 4, !tbaa !9
  %21 = add nsw i32 %20, 1
  %22 = sub nsw i32 0, %21
  %23 = call i64 @lua_objlen(ptr noundef %19, i32 noundef %22)
  store i64 %23, ptr %6, align 8, !tbaa !55
  %24 = load ptr, ptr %2, align 8, !tbaa !57
  %25 = getelementptr inbounds nuw %struct.luaL_Buffer, ptr %24, i32 0, i32 1
  %26 = load i32, ptr %25, align 8, !tbaa !62
  %27 = load i32, ptr %4, align 4, !tbaa !9
  %28 = sub nsw i32 %26, %27
  %29 = add nsw i32 %28, 1
  %30 = icmp sge i32 %29, 10
  br i1 %30, label %36, label %31

31:                                               ; preds = %18
  %32 = load i64, ptr %5, align 8, !tbaa !55
  %33 = load i64, ptr %6, align 8, !tbaa !55
  %34 = icmp ugt i64 %32, %33
  br i1 %34, label %36, label %35

35:                                               ; preds = %31
  store i32 2, ptr %7, align 4
  br label %42

36:                                               ; preds = %31, %18
  %37 = load i64, ptr %6, align 8, !tbaa !55
  %38 = load i64, ptr %5, align 8, !tbaa !55
  %39 = add i64 %38, %37
  store i64 %39, ptr %5, align 8, !tbaa !55
  %40 = load i32, ptr %4, align 4, !tbaa !9
  %41 = add nsw i32 %40, 1
  store i32 %41, ptr %4, align 4, !tbaa !9
  store i32 0, ptr %7, align 4
  br label %42

42:                                               ; preds = %36, %35
  call void @llvm.lifetime.end.p0(i64 8, ptr %6) #9
  %43 = load i32, ptr %7, align 4
  switch i32 %43, label %63 [
    i32 0, label %44
    i32 2, label %51
  ]

44:                                               ; preds = %42
  br label %45

45:                                               ; preds = %44
  %46 = load i32, ptr %4, align 4, !tbaa !9
  %47 = load ptr, ptr %2, align 8, !tbaa !57
  %48 = getelementptr inbounds nuw %struct.luaL_Buffer, ptr %47, i32 0, i32 1
  %49 = load i32, ptr %48, align 8, !tbaa !62
  %50 = icmp slt i32 %46, %49
  br i1 %50, label %18, label %51, !llvm.loop !63

51:                                               ; preds = %45, %42
  %52 = load ptr, ptr %3, align 8, !tbaa !4
  %53 = load i32, ptr %4, align 4, !tbaa !9
  call void @lua_concat(ptr noundef %52, i32 noundef %53)
  %54 = load ptr, ptr %2, align 8, !tbaa !57
  %55 = getelementptr inbounds nuw %struct.luaL_Buffer, ptr %54, i32 0, i32 1
  %56 = load i32, ptr %55, align 8, !tbaa !62
  %57 = load i32, ptr %4, align 4, !tbaa !9
  %58 = sub nsw i32 %56, %57
  %59 = add nsw i32 %58, 1
  %60 = load ptr, ptr %2, align 8, !tbaa !57
  %61 = getelementptr inbounds nuw %struct.luaL_Buffer, ptr %60, i32 0, i32 1
  store i32 %59, ptr %61, align 8, !tbaa !62
  call void @llvm.lifetime.end.p0(i64 8, ptr %5) #9
  call void @llvm.lifetime.end.p0(i64 4, ptr %4) #9
  call void @llvm.lifetime.end.p0(i64 8, ptr %3) #9
  br label %62

62:                                               ; preds = %51, %1
  ret void

63:                                               ; preds = %42
  unreachable
}

; Function Attrs: nounwind uwtable
define internal i32 @emptybuffer(ptr noundef %0) #0 {
  %2 = alloca i32, align 4
  %3 = alloca ptr, align 8
  %4 = alloca i64, align 8
  %5 = alloca i32, align 4
  store ptr %0, ptr %3, align 8, !tbaa !57
  call void @llvm.lifetime.start.p0(i64 8, ptr %4) #9
  %6 = load ptr, ptr %3, align 8, !tbaa !57
  %7 = getelementptr inbounds nuw %struct.luaL_Buffer, ptr %6, i32 0, i32 0
  %8 = load ptr, ptr %7, align 8, !tbaa !61
  %9 = load ptr, ptr %3, align 8, !tbaa !57
  %10 = getelementptr inbounds nuw %struct.luaL_Buffer, ptr %9, i32 0, i32 3
  %11 = getelementptr inbounds [8192 x i8], ptr %10, i64 0, i64 0
  %12 = ptrtoint ptr %8 to i64
  %13 = ptrtoint ptr %11 to i64
  %14 = sub i64 %12, %13
  store i64 %14, ptr %4, align 8, !tbaa !55
  %15 = load i64, ptr %4, align 8, !tbaa !55
  %16 = icmp eq i64 %15, 0
  br i1 %16, label %17, label %18

17:                                               ; preds = %1
  store i32 0, ptr %2, align 4
  store i32 1, ptr %5, align 4
  br label %35

18:                                               ; preds = %1
  %19 = load ptr, ptr %3, align 8, !tbaa !57
  %20 = getelementptr inbounds nuw %struct.luaL_Buffer, ptr %19, i32 0, i32 2
  %21 = load ptr, ptr %20, align 8, !tbaa !59
  %22 = load ptr, ptr %3, align 8, !tbaa !57
  %23 = getelementptr inbounds nuw %struct.luaL_Buffer, ptr %22, i32 0, i32 3
  %24 = getelementptr inbounds [8192 x i8], ptr %23, i64 0, i64 0
  %25 = load i64, ptr %4, align 8, !tbaa !55
  call void @lua_pushlstring(ptr noundef %21, ptr noundef %24, i64 noundef %25)
  %26 = load ptr, ptr %3, align 8, !tbaa !57
  %27 = getelementptr inbounds nuw %struct.luaL_Buffer, ptr %26, i32 0, i32 3
  %28 = getelementptr inbounds [8192 x i8], ptr %27, i64 0, i64 0
  %29 = load ptr, ptr %3, align 8, !tbaa !57
  %30 = getelementptr inbounds nuw %struct.luaL_Buffer, ptr %29, i32 0, i32 0
  store ptr %28, ptr %30, align 8, !tbaa !61
  %31 = load ptr, ptr %3, align 8, !tbaa !57
  %32 = getelementptr inbounds nuw %struct.luaL_Buffer, ptr %31, i32 0, i32 1
  %33 = load i32, ptr %32, align 8, !tbaa !62
  %34 = add nsw i32 %33, 1
  store i32 %34, ptr %32, align 8, !tbaa !62
  store i32 1, ptr %2, align 4
  store i32 1, ptr %5, align 4
  br label %35

35:                                               ; preds = %18, %17
  call void @llvm.lifetime.end.p0(i64 8, ptr %4) #9
  %36 = load i32, ptr %2, align 4
  ret i32 %36
}

; Function Attrs: nounwind uwtable
define dso_local ptr @luaL_prepbuffer(ptr noundef %0) #0 {
  %2 = alloca ptr, align 8
  store ptr %0, ptr %2, align 8, !tbaa !57
  %3 = load ptr, ptr %2, align 8, !tbaa !57
  %4 = call i32 @emptybuffer(ptr noundef %3)
  %5 = icmp ne i32 %4, 0
  br i1 %5, label %6, label %8

6:                                                ; preds = %1
  %7 = load ptr, ptr %2, align 8, !tbaa !57
  call void @adjuststack(ptr noundef %7)
  br label %8

8:                                                ; preds = %6, %1
  %9 = load ptr, ptr %2, align 8, !tbaa !57
  %10 = getelementptr inbounds nuw %struct.luaL_Buffer, ptr %9, i32 0, i32 3
  %11 = getelementptr inbounds [8192 x i8], ptr %10, i64 0, i64 0
  ret ptr %11
}